target datalayout = "e-m:e-p270:32:32-p271:32:32-p272:64:64-i64:64-i128:128-f80:128-n8:16:32:64-S128"
target triple = "x86_64-pc-linux-gnu"

%struct.H5O_token_t = type { [16 x i8] }
%struct.ref_path_node_t = type { %struct.H5O_token_t, ptr }
%struct.H5O_info2_t = type { i64, %struct.H5O_token_t, i32, i32, i64, i64, i64, i64, i64 }

@ref_path_table = internal global ptr null, align 8

; Function Attrs: nounwind uwtable
define internal i32 @ref_path_table_put(ptr noundef %0, ptr noundef %1) #0 {
  %3 = alloca i32, align 4
  %4 = alloca ptr, align 8
  %5 = alloca ptr, align 8
  %6 = alloca ptr, align 8
  store ptr %0, ptr %4, align 8
  store ptr %1, ptr %5, align 8
  %7 = load ptr, ptr @ref_path_table, align 8
  %8 = icmp ne ptr %7, null
  br i1 %8, label %9, label %29

9:                                                ; preds = %2
  %10 = load ptr, ptr %4, align 8
  %11 = icmp ne ptr %10, null
  br i1 %11, label %12, label %29

12:                                               ; preds = %9
  %13 = call noalias ptr @malloc(i64 noundef 24) #8
  store ptr %13, ptr %6, align 8
  %14 = icmp eq ptr %13, null
  br i1 %14, label %15, label %16

15:                                               ; preds = %12
  store i32 -1, ptr %3, align 4
  br label %30

16:                                               ; preds = %12
  %17 = load ptr, ptr %6, align 8
  %18 = getelementptr inbounds %struct.ref_path_node_t, ptr %17, i32 0, i32 0
  %19 = load ptr, ptr %5, align 8
  call void @llvm.memcpy.p0.p0.i64(ptr align 8 %18, ptr align 1 %19, i64 16, i1 false)
  %20 = load ptr, ptr %4, align 8
  %21 = call noalias ptr @strdup(ptr noundef %20) #6
  %22 = load ptr, ptr %6, align 8
  %23 = getelementptr inbounds %struct.ref_path_node_t, ptr %22, i32 0, i32 1
  store ptr %21, ptr %23, align 8
  %24 = load ptr, ptr @ref_path_table, align 8
  %25 = load ptr, ptr %6, align 8
  %26 = load ptr, ptr %6, align 8
  %27 = getelementptr inbounds %struct.ref_path_node_t, ptr %26, i32 0, i32 0
  %28 = call i32 @H5SL_insert(ptr noundef %24, ptr noundef %25, ptr noundef %27)
  store i32 %28, ptr %3, align 4
  br label %30

29:                                               ; preds = %9, %2
  store i32 -1, ptr %3, align 4
  br label %30

30:                                               ; preds = %29, %16, %15
  %31 = load i32, ptr %3, align 4
  ret i32 %31
}

; Function Attrs: nounwind uwtable
define internal i32 @init_ref_path_cb(ptr noundef %0, ptr noundef %1, ptr noundef %2, ptr noundef %3) #0 {
  %5 = alloca ptr, align 8
  %6 = alloca ptr, align 8
  %7 = alloca ptr, align 8
  %8 = alloca ptr, align 8
  store ptr %0, ptr %5, align 8
  store ptr %1, ptr %6, align 8
  store ptr %2, ptr %7, align 8
  store ptr %3, ptr %8, align 8
  %9 = load ptr, ptr %7, align 8
  %10 = icmp eq ptr null, %9
  br i1 %10, label %11, label %16

11:                                               ; preds = %4
  %12 = load ptr, ptr %5, align 8
  %13 = load ptr, ptr %6, align 8
  %14 = getelementptr inbounds %struct.H5O_info2_t, ptr %13, i32 0, i32 1
  %15 = call i32 @ref_path_table_put(ptr noundef %12, ptr noundef %14)
  br label %16

16:                                               ; preds = %11, %4
  ret i32 0
}