; Function Attrs: nounwind uwtable
define internal noundef i32 @init_ref_path_cb(ptr noundef readonly %0, ptr noundef readonly captures(none) %1, ptr noundef readnone %2, ptr readnone captures(none) %3) #0 {
  %5 = icmp eq ptr %2, null
  br i1 %5, label %6, label %ref_path_table_put.exit

6:                                                ; preds = %4
  %7 = getelementptr inbounds nuw i8, ptr %1, i64 8
  %8 = load ptr, ptr @ref_path_table, align 8
  %9 = icmp ne ptr %8, null
  %10 = icmp ne ptr %0, null
  %or.cond.i = and i1 %10, %9
  br i1 %or.cond.i, label %11, label %ref_path_table_put.exit

11:                                               ; preds = %6
  %12 = tail call noalias dereferenceable_or_null(24) ptr @malloc(i64 noundef 24) #11
  %13 = icmp eq ptr %12, null
  br i1 %13, label %ref_path_table_put.exit, label %14

14:                                               ; preds = %11
  tail call void @llvm.memcpy.p0.p0.i64(ptr noundef nonnull align 8 dereferenceable(16) %12, ptr noundef nonnull readonly align 1 dereferenceable(16) %7, i64 16, i1 false)
  %15 = tail call noalias ptr @strdup(ptr noundef nonnull readonly %0) #10
  %16 = getelementptr inbounds nuw i8, ptr %12, i64 16
  store ptr %15, ptr %16, align 8
  %17 = tail call i32 @H5SL_insert(ptr noundef nonnull %8, ptr noundef nonnull %12, ptr noundef nonnull %12) #10
  br label %ref_path_table_put.exit

ref_path_table_put.exit:                          ; preds = %14, %11, %6, %4
  ret i32 0
}